target datalayout = "e-m:e-p270:32:32-p271:32:32-p272:64:64-i64:64-i128:128-f80:128-n8:16:32:64-S128"
target triple = "x86_64-unknown-linux-gnu"

%struct.HIDState = type { %union.anon, i32, i32, i32, i32, i8, i8, ptr, ptr, ptr }
%union.anon = type { %struct.HIDMouseState }
%struct.HIDMouseState = type { [16 x %struct.HIDPointerEvent], i32 }
%struct.HIDPointerEvent = type { i32, i32, i32, i32 }

; Function Attrs: nounwind sspstrong uwtable
define internal void @timer_free(ptr noundef %ts) #0 {
entry:
  %ts.addr = alloca ptr, align 8
  store ptr %ts, ptr %ts.addr, align 8
  %0 = load ptr, ptr %ts.addr, align 8
  %tobool = icmp ne ptr %0, null
  br i1 %tobool, label %if.then, label %if.end

if.then:                                          ; preds = %entry
  %1 = load ptr, ptr %ts.addr, align 8
  call void @timer_del(ptr noundef %1)
  %2 = load ptr, ptr %ts.addr, align 8
  call void @g_free(ptr noundef %2)
  br label %if.end

if.end:                                           ; preds = %if.then, %entry
  ret void
}

; Function Attrs: nounwind sspstrong uwtable
define internal void @hid_del_idle_timer(ptr noundef %hs) #0 {
entry:
  %hs.addr = alloca ptr, align 8
  store ptr %hs, ptr %hs.addr, align 8
  %0 = load ptr, ptr %hs.addr, align 8
  %idle_timer = getelementptr inbounds %struct.HIDState, ptr %0, i32 0, i32 7
  %1 = load ptr, ptr %idle_timer, align 8
  %tobool = icmp ne ptr %1, null
  br i1 %tobool, label %if.then, label %if.end

if.then:                                          ; preds = %entry
  %2 = load ptr, ptr %hs.addr, align 8
  %idle_timer1 = getelementptr inbounds %struct.HIDState, ptr %2, i32 0, i32 7
  %3 = load ptr, ptr %idle_timer1, align 8
  call void @timer_free(ptr noundef %3)
  %4 = load ptr, ptr %hs.addr, align 8
  %idle_timer2 = getelementptr inbounds %struct.HIDState, ptr %4, i32 0, i32 7
  store ptr null, ptr %idle_timer2, align 8
  br label %if.end

if.end:                                           ; preds = %if.then, %entry
  ret void
}

; Function Attrs: nounwind sspstrong uwtable
define dso_local void @hid_free(ptr noundef %hs) #0 {
entry:
  %hs.addr = alloca ptr, align 8
  store ptr %hs, ptr %hs.addr, align 8
  %0 = load ptr, ptr %hs.addr, align 8
  %s = getelementptr inbounds %struct.HIDState, ptr %0, i32 0, i32 9
  %1 = load ptr, ptr %s, align 8
  call void @qemu_input_handler_unregister(ptr noundef %1)
  %2 = load ptr, ptr %hs.addr, align 8
  call void @hid_del_idle_timer(ptr noundef %2)
  ret void
}