; Function Attrs: nounwind sspstrong uwtable
define dso_local void @hid_free(ptr noundef captures(none) %hs) local_unnamed_addr #1 {
entry:
  %s = getelementptr inbounds nuw i8, ptr %hs, i64 296
  %0 = load ptr, ptr %s, align 8
  tail call void @qemu_input_handler_unregister(ptr noundef %0) #11
  %idle_timer.i = getelementptr inbounds nuw i8, ptr %hs, i64 280
  %1 = load ptr, ptr %idle_timer.i, align 8
  %tobool.not.i = icmp eq ptr %1, null
  br i1 %tobool.not.i, label %hid_del_idle_timer.exit, label %if.then.i

if.then.i:                                        ; preds = %entry
  tail call void @timer_del(ptr noundef nonnull %1) #11
  tail call void @g_free(ptr noundef nonnull %1) #11
  store ptr null, ptr %idle_timer.i, align 8
  br label %hid_del_idle_timer.exit

hid_del_idle_timer.exit:                          ; preds = %entry, %if.then.i
  ret void
}